target datalayout = "e-m:e-p270:32:32-p271:32:32-p272:64:64-i64:64-i128:128-f80:128-n8:16:32:64-S128"
target triple = "x86_64-pc-linux-gnu"

%"class.open3d::visualization::glsl::GeometryRenderer.base" = type <{ ptr, %"class.std::shared_ptr", i8 }>
%"class.std::shared_ptr" = type { %"class.std::__shared_ptr" }
%"class.std::__shared_ptr" = type { ptr, %"class.std::__shared_count" }
%"class.std::__shared_count" = type { ptr }
%"class.open3d::visualization::glsl::ShaderWrapper" = type { ptr, i32, i32, i32, i32, i32, i32, i8, i8, %"class.std::__cxx11::basic_string" }
%"class.std::__cxx11::basic_string" = type { %"struct.std::__cxx11::basic_string<char>::_Alloc_hider", i64, %union.anon }
%"struct.std::__cxx11::basic_string<char>::_Alloc_hider" = type { ptr }
%union.anon = type { i64, [8 x i8] }
%"class.open3d::visualization::glsl::GeometryRenderer" = type <{ ptr, %"class.std::shared_ptr", i8, [7 x i8] }>
%"class.Eigen::Matrix.86" = type { %"class.Eigen::PlainObjectBase.87" }
%"class.Eigen::PlainObjectBase.87" = type { %"class.Eigen::DenseStorage.94" }
%"class.Eigen::DenseStorage.94" = type { %"struct.Eigen::internal::plain_array.95" }
%"struct.Eigen::internal::plain_array.95" = type { [3 x float] }
%"class.open3d::visualization::glsl::RGBDImageRenderer" = type { %"class.open3d::visualization::glsl::GeometryRenderer.base", %"class.open3d::visualization::glsl::RGBDImageShaderForImage" }
%"class.open3d::visualization::glsl::RGBDImageShaderForImage" = type { %"class.open3d::visualization::glsl::RGBDImageShader" }
%"class.open3d::visualization::glsl::RGBDImageShader" = type { %"class.open3d::visualization::glsl::ShaderWrapper", i32, i32, i32, i32, i32, i32, i32, i32, i32, i32, i32, float, float, i32, i32, %"class.Eigen::Matrix.86" }

; Function Attrs: mustprogress nounwind ssp uwtable
define linkonce_odr hidden noundef ptr @_ZNKSt12__shared_ptrIKN6open3d8geometry8GeometryELN9__gnu_cxx12_Lock_policyE2EE3getEv(ptr noundef nonnull align 8 dereferenceable(16) %0) #0 comdat align 2 {
  %2 = alloca ptr, align 8
  store ptr %0, ptr %2, align 8, !tbaa !225
  %3 = load ptr, ptr %2, align 8
  %4 = getelementptr inbounds nuw %"class.std::__shared_ptr", ptr %3, i32 0, i32 0
  %5 = load ptr, ptr %4, align 8, !tbaa !227
  ret ptr %5
}

; Function Attrs: mustprogress nounwind ssp uwtable
define linkonce_odr hidden noundef ptr @_ZNKSt19__shared_ptr_accessIKN6open3d8geometry8GeometryELN9__gnu_cxx12_Lock_policyE2ELb0ELb0EE6_M_getEv(ptr noundef nonnull align 1 dereferenceable(1) %0) #0 comdat align 2 {
  %2 = alloca ptr, align 8
  store ptr %0, ptr %2, align 8, !tbaa !223
  %3 = load ptr, ptr %2, align 8
  %4 = call noundef ptr @_ZNKSt12__shared_ptrIKN6open3d8geometry8GeometryELN9__gnu_cxx12_Lock_policyE2EE3getEv(ptr noundef nonnull align 8 dereferenceable(16) %3) #7
  ret ptr %4
}

; Function Attrs: mustprogress nounwind ssp uwtable
define linkonce_odr hidden noundef nonnull align 8 dereferenceable(48) ptr @_ZNKSt19__shared_ptr_accessIKN6open3d8geometry8GeometryELN9__gnu_cxx12_Lock_policyE2ELb0ELb0EEdeEv(ptr noundef nonnull align 1 dereferenceable(1) %0) #0 comdat align 2 {
  %2 = alloca ptr, align 8
  store ptr %0, ptr %2, align 8, !tbaa !223
  %3 = load ptr, ptr %2, align 8
  br label %4

4:                                                ; preds = %1
  br label %5

5:                                                ; preds = %4
  br label %6

6:                                                ; preds = %5
  %7 = call noundef ptr @_ZNKSt19__shared_ptr_accessIKN6open3d8geometry8GeometryELN9__gnu_cxx12_Lock_policyE2ELb0ELb0EE6_M_getEv(ptr noundef nonnull align 1 dereferenceable(1) %3) #7
  ret ptr %7
}

; Function Attrs: mustprogress nounwind ssp uwtable
define linkonce_odr hidden noundef ptr @_ZNKSt19__shared_ptr_accessIKN6open3d8geometry8GeometryELN9__gnu_cxx12_Lock_policyE2ELb0ELb0EEptEv(ptr noundef nonnull align 1 dereferenceable(1) %0) #0 comdat align 2 {
  %2 = alloca ptr, align 8
  store ptr %0, ptr %2, align 8, !tbaa !223
  %3 = load ptr, ptr %2, align 8
  %4 = call noundef ptr @_ZNKSt19__shared_ptr_accessIKN6open3d8geometry8GeometryELN9__gnu_cxx12_Lock_policyE2ELb0ELb0EE6_M_getEv(ptr noundef nonnull align 1 dereferenceable(1) %3) #7
  ret ptr %4
}

; Function Attrs: mustprogress ssp uwtable
define hidden noundef zeroext i1 @_ZN6open3d13visualization4glsl17RGBDImageRenderer6RenderERKNS0_12RenderOptionERKNS0_11ViewControlE(ptr noundef nonnull align 8 dereferenceable(176) %0, ptr noundef nonnull align 8 dereferenceable(497) %1, ptr noundef nonnull align 16 dereferenceable(728) %2) unnamed_addr #1 align 2 {
  %4 = alloca i1, align 1
  %5 = alloca ptr, align 8
  %6 = alloca ptr, align 8
  %7 = alloca ptr, align 8
  store ptr %0, ptr %5, align 8, !tbaa !68
  store ptr %1, ptr %6, align 8, !tbaa !11
  store ptr %2, ptr %7, align 8, !tbaa !13
  %8 = load ptr, ptr %5, align 8
  %9 = getelementptr inbounds nuw %"class.open3d::visualization::glsl::GeometryRenderer", ptr %8, i32 0, i32 2
  %10 = load i8, ptr %9, align 8, !tbaa !15, !range !23, !noundef !24
  %11 = trunc i8 %10 to i1
  br i1 %11, label %12, label %19

12:                                               ; preds = %3
  %13 = getelementptr inbounds nuw %"class.open3d::visualization::glsl::GeometryRenderer", ptr %8, i32 0, i32 1
  %14 = call noundef ptr @_ZNKSt19__shared_ptr_accessIKN6open3d8geometry8GeometryELN9__gnu_cxx12_Lock_policyE2ELb0ELb0EEptEv(ptr noundef nonnull align 1 dereferenceable(1) %13) #7
  %15 = load ptr, ptr %14, align 8, !tbaa !9
  %16 = getelementptr inbounds ptr, ptr %15, i64 3
  %17 = load ptr, ptr %16, align 8
  %18 = call noundef zeroext i1 %17(ptr noundef nonnull align 8 dereferenceable(48) %14)
  br i1 %18, label %19, label %20

19:                                               ; preds = %12, %3
  store i1 true, ptr %4, align 1
  br label %27

20:                                               ; preds = %12
  %21 = getelementptr inbounds nuw %"class.open3d::visualization::glsl::RGBDImageRenderer", ptr %8, i32 0, i32 1
  %22 = getelementptr inbounds nuw %"class.open3d::visualization::glsl::GeometryRenderer", ptr %8, i32 0, i32 1
  %23 = call noundef nonnull align 8 dereferenceable(48) ptr @_ZNKSt19__shared_ptr_accessIKN6open3d8geometry8GeometryELN9__gnu_cxx12_Lock_policyE2ELb0ELb0EEdeEv(ptr noundef nonnull align 1 dereferenceable(1) %22) #7
  %24 = load ptr, ptr %6, align 8, !tbaa !11
  %25 = load ptr, ptr %7, align 8, !tbaa !13
  %26 = call noundef zeroext i1 @_ZN6open3d13visualization4glsl13ShaderWrapper6RenderERKNS_8geometry8GeometryERKNS0_12RenderOptionERKNS0_11ViewControlE(ptr noundef nonnull align 8 dereferenceable(72) %21, ptr noundef nonnull align 8 dereferenceable(48) %23, ptr noundef nonnull align 8 dereferenceable(497) %24, ptr noundef nonnull align 16 dereferenceable(728) %25)
  store i1 %26, ptr %4, align 1
  br label %27

27:                                               ; preds = %20, %19
  %28 = load i1, ptr %4, align 1
  ret i1 %28
}